; Function Attrs: nounwind sspstrong uwtable
define internal void @vcpu_insn_exec_with_regs(i32 noundef %0, ptr noundef %1) #0 {
  tail call void @g_rw_lock_reader_lock(ptr noundef nonnull @expand_array_lock) #7
  %3 = load ptr, ptr @cpus, align 8
  %4 = load ptr, ptr %3, align 8
  %5 = sext i32 %0 to i64
  %6 = getelementptr inbounds %struct.CPU, ptr %4, i64 %5
  tail call void @g_rw_lock_reader_unlock(ptr noundef nonnull @expand_array_lock) #7
  %7 = load ptr, ptr %6, align 8
  %8 = getelementptr inbounds nuw i8, ptr %7, i64 8
  %9 = load i64, ptr %8, align 8
  %.not = icmp eq i64 %9, 0
  br i1 %.not, label %17, label %10

10:                                               ; preds = %2
  %11 = getelementptr inbounds nuw i8, ptr %6, i64 8
  %12 = load ptr, ptr %11, align 8
  %.not8 = icmp eq ptr %12, null
  br i1 %.not8, label %14, label %13

13:                                               ; preds = %10
  tail call fastcc void @insn_check_regs(ptr noundef nonnull %6)
  %.pre = load ptr, ptr %6, align 8
  br label %14

14:                                               ; preds = %13, %10
  %15 = phi ptr [ %.pre, %13 ], [ %7, %10 ]
  %16 = load ptr, ptr %15, align 8
  tail call void @qemu_plugin_outs(ptr noundef %16) #7
  tail call void @qemu_plugin_outs(ptr noundef nonnull @.str.11) #7
  %.pre9 = load ptr, ptr %6, align 8
  br label %17

17:                                               ; preds = %14, %2
  %18 = phi ptr [ %.pre9, %14 ], [ %7, %2 ]
  tail call void (ptr, ptr, ...) @g_string_printf(ptr noundef %18, ptr noundef nonnull @.str.19, i32 noundef %0) #7
  %19 = load ptr, ptr %6, align 8
  %20 = tail call ptr @g_string_append(ptr noundef %19, ptr noundef %1) #7
  ret void
}